; ModuleID = '23/285.c'
source_filename = "23/285.c"
target datalayout = "e-m:e-p270:32:32-p271:32:32-p272:64:64-i64:64-f80:128-n8:16:32:64-S128"
target triple = "x86_64-pc-linux-gnu"

@.str = private unnamed_addr constant [3 x i8] c"%c\00", align 1
@.str.1 = private unnamed_addr constant [2 x i8] c" \00", align 1
@.str.2 = private unnamed_addr constant [2 x i8] c"\0A\00", align 1

; Function Attrs: noinline nounwind uwtable
define dso_local i32 @main() #0 {
  %1 = alloca i32, align 4
  %2 = alloca [100 x i8], align 16
  %3 = alloca i32, align 4
  %4 = alloca i32, align 4
  %5 = alloca i32, align 4
  %6 = alloca i32, align 4
  %7 = alloca i32, align 4
  store i32 0, i32* %1, align 4
  %8 = getelementptr inbounds [100 x i8], [100 x i8]* %2, i64 0, i64 0
  %9 = call i32 (i8*, ...) bitcast (i32 (...)* @gets to i32 (i8*, ...)*)(i8* %8)
  %10 = getelementptr inbounds [100 x i8], [100 x i8]* %2, i64 0, i64 0
  %11 = call i64 @strlen(i8* %10) #3
  %12 = trunc i64 %11 to i32
  store i32 %12, i32* %5, align 4
  %13 = load i32, i32* %5, align 4
  %14 = sub nsw i32 %13, 1
  store i32 %14, i32* %3, align 4
  %15 = load i32, i32* %5, align 4
  store i32 %15, i32* %6, align 4
  br label %16

16:                                               ; preds = %61, %0
  %17 = load i32, i32* %6, align 4
  %18 = icmp sge i32 %17, 0
  br i1 %18, label %19, label %64

19:                                               ; preds = %16
  %20 = load i32, i32* %6, align 4
  %21 = sext i32 %20 to i64
  %22 = getelementptr inbounds [100 x i8], [100 x i8]* %2, i64 0, i64 %21
  %23 = load i8, i8* %22, align 1
  %24 = sext i8 %23 to i32
  %25 = icmp eq i32 %24, 32
  br i1 %25, label %29, label %26

26:                                               ; preds = %19
  %27 = load i32, i32* %6, align 4
  %28 = icmp eq i32 %27, 0
  br i1 %28, label %29, label %60

29:                                               ; preds = %26, %19
  %30 = load i32, i32* %6, align 4
  %31 = icmp eq i32 %30, 0
  br i1 %31, label %32, label %33

32:                                               ; preds = %29
  store i32 0, i32* %4, align 4
  br label %36

33:                                               ; preds = %29
  %34 = load i32, i32* %6, align 4
  %35 = add nsw i32 %34, 1
  store i32 %35, i32* %4, align 4
  br label %36

36:                                               ; preds = %33, %32
  %37 = load i32, i32* %4, align 4
  store i32 %37, i32* %7, align 4
  br label %38

38:                                               ; preds = %49, %36
  %39 = load i32, i32* %7, align 4
  %40 = load i32, i32* %3, align 4
  %41 = icmp sle i32 %39, %40
  br i1 %41, label %42, label %52

42:                                               ; preds = %38
  %43 = load i32, i32* %7, align 4
  %44 = sext i32 %43 to i64
  %45 = getelementptr inbounds [100 x i8], [100 x i8]* %2, i64 0, i64 %44
  %46 = load i8, i8* %45, align 1
  %47 = sext i8 %46 to i32
  %48 = call i32 (i8*, ...) @printf(i8* getelementptr inbounds ([3 x i8], [3 x i8]* @.str, i64 0, i64 0), i32 %47)
  br label %49

49:                                               ; preds = %42
  %50 = load i32, i32* %7, align 4
  %51 = add nsw i32 %50, 1
  store i32 %51, i32* %7, align 4
  br label %38

52:                                               ; preds = %38
  %53 = load i32, i32* %6, align 4
  %54 = icmp ne i32 %53, 0
  br i1 %54, label %55, label %57

55:                                               ; preds = %52
  %56 = call i32 (i8*, ...) @printf(i8* getelementptr inbounds ([2 x i8], [2 x i8]* @.str.1, i64 0, i64 0))
  br label %57

57:                                               ; preds = %55, %52
  %58 = load i32, i32* %6, align 4
  %59 = sub nsw i32 %58, 1
  store i32 %59, i32* %3, align 4
  br label %60

60:                                               ; preds = %57, %26
  br label %61

61:                                               ; preds = %60
  %62 = load i32, i32* %6, align 4
  %63 = add nsw i32 %62, -1
  store i32 %63, i32* %6, align 4
  br label %16

64:                                               ; preds = %16
  %65 = call i32 (i8*, ...) @printf(i8* getelementptr inbounds ([2 x i8], [2 x i8]* @.str.2, i64 0, i64 0))
  ret i32 0
}

declare dso_local i32 @gets(...) #1

; Function Attrs: nounwind readonly
declare dso_local i64 @strlen(i8*) #2

declare dso_local i32 @printf(i8*, ...) #1


!llvm.module.flags = !{!0}
!llvm.ident = !{!1}

!0 = !{i32 1, !"wchar_size", i32 4}
!1 = !{!"clang version 10.0.0-4ubuntu1 "}
